target datalayout = "e-m:e-p270:32:32-p271:32:32-p272:64:64-i64:64-f80:128-n8:16:32:64-S128"
target triple = "x86_64-pc-linux-gnu"

@.str = private unnamed_addr constant [6 x i8] c"%d %d\00", align 1
@.str.1 = private unnamed_addr constant [3 x i8] c"%d\00", align 1
@.str.2 = private unnamed_addr constant [4 x i8] c"%d\0A\00", align 1

; Function Attrs: noinline nounwind uwtable
define dso_local i32 @main() #0 {
  %1 = alloca i32, align 4
  %2 = alloca i32, align 4
  %3 = alloca i32, align 4
  %4 = alloca [100 x [100 x i32]], align 16
  %5 = alloca i32, align 4
  %6 = alloca i32, align 4
  %7 = alloca i32, align 4
  store i32 0, i32* %1, align 4
  %8 = call i32 (i8*, ...) @__isoc99_scanf(i8* getelementptr inbounds ([6 x i8], [6 x i8]* @.str, i64 0, i64 0), i32* %2, i32* %3)
  store i32 0, i32* %5, align 4
  br label %9

9:                                                ; preds = %30, %0
  %10 = load i32, i32* %5, align 4
  %11 = load i32, i32* %2, align 4
  %12 = icmp slt i32 %10, %11
  br i1 %12, label %13, label %33

13:                                               ; preds = %9
  store i32 0, i32* %6, align 4
  br label %14

14:                                               ; preds = %26, %13
  %15 = load i32, i32* %6, align 4
  %16 = load i32, i32* %3, align 4
  %17 = icmp slt i32 %15, %16
  br i1 %17, label %18, label %29

18:                                               ; preds = %14
  %19 = load i32, i32* %5, align 4
  %20 = sext i32 %19 to i64
  %21 = getelementptr inbounds [100 x [100 x i32]], [100 x [100 x i32]]* %4, i64 0, i64 %20
  %22 = load i32, i32* %6, align 4
  %23 = sext i32 %22 to i64
  %24 = getelementptr inbounds [100 x i32], [100 x i32]* %21, i64 0, i64 %23
  %25 = call i32 (i8*, ...) @__isoc99_scanf(i8* getelementptr inbounds ([3 x i8], [3 x i8]* @.str.1, i64 0, i64 0), i32* %24)
  br label %26

26:                                               ; preds = %18
  %27 = load i32, i32* %6, align 4
  %28 = add nsw i32 %27, 1
  store i32 %28, i32* %6, align 4
  br label %14

29:                                               ; preds = %14
  br label %30

30:                                               ; preds = %29
  %31 = load i32, i32* %5, align 4
  %32 = add nsw i32 %31, 1
  store i32 %32, i32* %5, align 4
  br label %9

33:                                               ; preds = %9
  %34 = load i32, i32* %2, align 4
  %35 = load i32, i32* %3, align 4
  %36 = icmp slt i32 %34, %35
  br i1 %36, label %37, label %132

37:                                               ; preds = %33
  store i32 0, i32* %7, align 4
  br label %38

38:                                               ; preds = %62, %37
  %39 = load i32, i32* %7, align 4
  %40 = load i32, i32* %2, align 4
  %41 = icmp slt i32 %39, %40
  br i1 %41, label %42, label %65

42:                                               ; preds = %38
  store i32 0, i32* %5, align 4
  br label %43

43:                                               ; preds = %58, %42
  %44 = load i32, i32* %5, align 4
  %45 = load i32, i32* %7, align 4
  %46 = icmp sle i32 %44, %45
  br i1 %46, label %47, label %61

47:                                               ; preds = %43
  %48 = load i32, i32* %5, align 4
  %49 = sext i32 %48 to i64
  %50 = getelementptr inbounds [100 x [100 x i32]], [100 x [100 x i32]]* %4, i64 0, i64 %49
  %51 = load i32, i32* %7, align 4
  %52 = load i32, i32* %5, align 4
  %53 = sub nsw i32 %51, %52
  %54 = sext i32 %53 to i64
  %55 = getelementptr inbounds [100 x i32], [100 x i32]* %50, i64 0, i64 %54
  %56 = load i32, i32* %55, align 4
  %57 = call i32 (i8*, ...) @printf(i8* getelementptr inbounds ([4 x i8], [4 x i8]* @.str.2, i64 0, i64 0), i32 %56)
  br label %58

58:                                               ; preds = %47
  %59 = load i32, i32* %5, align 4
  %60 = add nsw i32 %59, 1
  store i32 %60, i32* %5, align 4
  br label %43

61:                                               ; preds = %43
  br label %62

62:                                               ; preds = %61
  %63 = load i32, i32* %7, align 4
  %64 = add nsw i32 %63, 1
  store i32 %64, i32* %7, align 4
  br label %38

65:                                               ; preds = %38
  %66 = load i32, i32* %2, align 4
  store i32 %66, i32* %7, align 4
  br label %67

67:                                               ; preds = %91, %65
  %68 = load i32, i32* %7, align 4
  %69 = load i32, i32* %3, align 4
  %70 = icmp slt i32 %68, %69
  br i1 %70, label %71, label %94

71:                                               ; preds = %67
  store i32 0, i32* %5, align 4
  br label %72

72:                                               ; preds = %87, %71
  %73 = load i32, i32* %5, align 4
  %74 = load i32, i32* %2, align 4
  %75 = icmp slt i32 %73, %74
  br i1 %75, label %76, label %90

76:                                               ; preds = %72
  %77 = load i32, i32* %5, align 4
  %78 = sext i32 %77 to i64
  %79 = getelementptr inbounds [100 x [100 x i32]], [100 x [100 x i32]]* %4, i64 0, i64 %78
  %80 = load i32, i32* %7, align 4
  %81 = load i32, i32* %5, align 4
  %82 = sub nsw i32 %80, %81
  %83 = sext i32 %82 to i64
  %84 = getelementptr inbounds [100 x i32], [100 x i32]* %79, i64 0, i64 %83
  %85 = load i32, i32* %84, align 4
  %86 = call i32 (i8*, ...) @printf(i8* getelementptr inbounds ([4 x i8], [4 x i8]* @.str.2, i64 0, i64 0), i32 %85)
  br label %87

87:                                               ; preds = %76
  %88 = load i32, i32* %5, align 4
  %89 = add nsw i32 %88, 1
  store i32 %89, i32* %5, align 4
  br label %72

90:                                               ; preds = %72
  br label %91

91:                                               ; preds = %90
  %92 = load i32, i32* %7, align 4
  %93 = add nsw i32 %92, 1
  store i32 %93, i32* %7, align 4
  br label %67

94:                                               ; preds = %67
  %95 = load i32, i32* %3, align 4
  store i32 %95, i32* %7, align 4
  br label %96

96:                                               ; preds = %128, %94
  %97 = load i32, i32* %7, align 4
  %98 = load i32, i32* %2, align 4
  %99 = load i32, i32* %3, align 4
  %100 = add nsw i32 %98, %99
  %101 = sub nsw i32 %100, 1
  %102 = icmp slt i32 %97, %101
  br i1 %102, label %103, label %131

103:                                              ; preds = %96
  %104 = load i32, i32* %3, align 4
  %105 = sub nsw i32 %104, 1
  store i32 %105, i32* %6, align 4
  br label %106

106:                                              ; preds = %124, %103
  %107 = load i32, i32* %6, align 4
  %108 = load i32, i32* %7, align 4
  %109 = load i32, i32* %2, align 4
  %110 = sub nsw i32 %108, %109
  %111 = add nsw i32 %110, 1
  %112 = icmp sge i32 %107, %111
  br i1 %112, label %113, label %127

113:                                              ; preds = %106
  %114 = load i32, i32* %7, align 4
  %115 = load i32, i32* %6, align 4
  %116 = sub nsw i32 %114, %115
  %117 = sext i32 %116 to i64
  %118 = getelementptr inbounds [100 x [100 x i32]], [100 x [100 x i32]]* %4, i64 0, i64 %117
  %119 = load i32, i32* %6, align 4
  %120 = sext i32 %119 to i64
  %121 = getelementptr inbounds [100 x i32], [100 x i32]* %118, i64 0, i64 %120
  %122 = load i32, i32* %121, align 4
  %123 = call i32 (i8*, ...) @printf(i8* getelementptr inbounds ([4 x i8], [4 x i8]* @.str.2, i64 0, i64 0), i32 %122)
  br label %124

124:                                              ; preds = %113
  %125 = load i32, i32* %6, align 4
  %126 = add nsw i32 %125, -1
  store i32 %126, i32* %6, align 4
  br label %106

127:                                              ; preds = %106
  br label %128

128:                                              ; preds = %127
  %129 = load i32, i32* %7, align 4
  %130 = add nsw i32 %129, 1
  store i32 %130, i32* %7, align 4
  br label %96

131:                                              ; preds = %96
  br label %132

132:                                              ; preds = %131, %33
  %133 = load i32, i32* %2, align 4
  %134 = load i32, i32* %3, align 4
  %135 = icmp sge i32 %133, %134
  br i1 %135, label %136, label %232

136:                                              ; preds = %132
  store i32 0, i32* %7, align 4
  br label %137

137:                                              ; preds = %161, %136
  %138 = load i32, i32* %7, align 4
  %139 = load i32, i32* %3, align 4
  %140 = icmp slt i32 %138, %139
  br i1 %140, label %141, label %164

141:                                              ; preds = %137
  store i32 0, i32* %5, align 4
  br label %142

142:                                              ; preds = %157, %141
  %143 = load i32, i32* %5, align 4
  %144 = load i32, i32* %7, align 4
  %145 = icmp sle i32 %143, %144
  br i1 %145, label %146, label %160

146:                                              ; preds = %142
  %147 = load i32, i32* %5, align 4
  %148 = sext i32 %147 to i64
  %149 = getelementptr inbounds [100 x [100 x i32]], [100 x [100 x i32]]* %4, i64 0, i64 %148
  %150 = load i32, i32* %7, align 4
  %151 = load i32, i32* %5, align 4
  %152 = sub nsw i32 %150, %151
  %153 = sext i32 %152 to i64
  %154 = getelementptr inbounds [100 x i32], [100 x i32]* %149, i64 0, i64 %153
  %155 = load i32, i32* %154, align 4
  %156 = call i32 (i8*, ...) @printf(i8* getelementptr inbounds ([4 x i8], [4 x i8]* @.str.2, i64 0, i64 0), i32 %155)
  br label %157

157:                                              ; preds = %146
  %158 = load i32, i32* %5, align 4
  %159 = add nsw i32 %158, 1
  store i32 %159, i32* %5, align 4
  br label %142

160:                                              ; preds = %142
  br label %161

161:                                              ; preds = %160
  %162 = load i32, i32* %7, align 4
  %163 = add nsw i32 %162, 1
  store i32 %163, i32* %7, align 4
  br label %137

164:                                              ; preds = %137
  %165 = load i32, i32* %3, align 4
  store i32 %165, i32* %7, align 4
  br label %166

166:                                              ; preds = %191, %164
  %167 = load i32, i32* %7, align 4
  %168 = load i32, i32* %2, align 4
  %169 = icmp slt i32 %167, %168
  br i1 %169, label %170, label %194

170:                                              ; preds = %166
  %171 = load i32, i32* %3, align 4
  %172 = sub nsw i32 %171, 1
  store i32 %172, i32* %6, align 4
  br label %173

173:                                              ; preds = %187, %170
  %174 = load i32, i32* %6, align 4
  %175 = icmp sge i32 %174, 0
  br i1 %175, label %176, label %190

176:                                              ; preds = %173
  %177 = load i32, i32* %7, align 4
  %178 = load i32, i32* %6, align 4
  %179 = sub nsw i32 %177, %178
  %180 = sext i32 %179 to i64
  %181 = getelementptr inbounds [100 x [100 x i32]], [100 x [100 x i32]]* %4, i64 0, i64 %180
  %182 = load i32, i32* %6, align 4
  %183 = sext i32 %182 to i64
  %184 = getelementptr inbounds [100 x i32], [100 x i32]* %181, i64 0, i64 %183
  %185 = load i32, i32* %184, align 4
  %186 = call i32 (i8*, ...) @printf(i8* getelementptr inbounds ([4 x i8], [4 x i8]* @.str.2, i64 0, i64 0), i32 %185)
  br label %187

187:                                              ; preds = %176
  %188 = load i32, i32* %6, align 4
  %189 = add nsw i32 %188, -1
  store i32 %189, i32* %6, align 4
  br label %173

190:                                              ; preds = %173
  br label %191

191:                                              ; preds = %190
  %192 = load i32, i32* %7, align 4
  %193 = add nsw i32 %192, 1
  store i32 %193, i32* %7, align 4
  br label %166

194:                                              ; preds = %166
  %195 = load i32, i32* %2, align 4
  store i32 %195, i32* %7, align 4
  br label %196

196:                                              ; preds = %228, %194
  %197 = load i32, i32* %7, align 4
  %198 = load i32, i32* %2, align 4
  %199 = load i32, i32* %3, align 4
  %200 = add nsw i32 %198, %199
  %201 = sub nsw i32 %200, 1
  %202 = icmp slt i32 %197, %201
  br i1 %202, label %203, label %231

203:                                              ; preds = %196
  %204 = load i32, i32* %3, align 4
  %205 = sub nsw i32 %204, 1
  store i32 %205, i32* %6, align 4
  br label %206

206:                                              ; preds = %224, %203
  %207 = load i32, i32* %6, align 4
  %208 = load i32, i32* %7, align 4
  %209 = load i32, i32* %2, align 4
  %210 = sub nsw i32 %208, %209
  %211 = add nsw i32 %210, 1
  %212 = icmp sge i32 %207, %211
  br i1 %212, label %213, label %227

213:                                              ; preds = %206
  %214 = load i32, i32* %7, align 4
  %215 = load i32, i32* %6, align 4
  %216 = sub nsw i32 %214, %215
  %217 = sext i32 %216 to i64
  %218 = getelementptr inbounds [100 x [100 x i32]], [100 x [100 x i32]]* %4, i64 0, i64 %217
  %219 = load i32, i32* %6, align 4
  %220 = sext i32 %219 to i64
  %221 = getelementptr inbounds [100 x i32], [100 x i32]* %218, i64 0, i64 %220
  %222 = load i32, i32* %221, align 4
  %223 = call i32 (i8*, ...) @printf(i8* getelementptr inbounds ([4 x i8], [4 x i8]* @.str.2, i64 0, i64 0), i32 %222)
  br label %224

224:                                              ; preds = %213
  %225 = load i32, i32* %6, align 4
  %226 = add nsw i32 %225, -1
  store i32 %226, i32* %6, align 4
  br label %206

227:                                              ; preds = %206
  br label %228

228:                                              ; preds = %227
  %229 = load i32, i32* %7, align 4
  %230 = add nsw i32 %229, 1
  store i32 %230, i32* %7, align 4
  br label %196

231:                                              ; preds = %196
  br label %232

232:                                              ; preds = %231, %132
  ret i32 0
}